target datalayout = "e-m:e-p270:32:32-p271:32:32-p272:64:64-i64:64-i128:128-f80:128-n8:16:32:64-S128"
target triple = "x86_64-pc-linux-gnu"

%struct.IDAMemRec = type { double, ptr, ptr, i32, double, double, ptr, i32, ptr, ptr, i32, ptr, ptr, i32, i32, double, double, ptr, i32, i32, i32, ptr, ptr, i32, ptr, ptr, ptr, i32, double, i32, i32, double, ptr, ptr, i32, ptr, ptr, i32, i32, i32, double, ptr, ptr, [6 x ptr], [6 x double], [6 x double], [6 x double], [6 x double], [6 x double], ptr, ptr, ptr, ptr, ptr, ptr, ptr, ptr, ptr, ptr, ptr, ptr, ptr, ptr, ptr, [6 x ptr], ptr, ptr, ptr, ptr, [6 x ptr], ptr, ptr, ptr, ptr, ptr, ptr, ptr, ptr, ptr, ptr, ptr, ptr, ptr, ptr, [6 x ptr], ptr, ptr, ptr, ptr, ptr, double, ptr, ptr, i32, i32, i32, i32, i32, i32, i32, double, double, double, i32, double, i32, i32, i32, i32, double, double, double, double, double, double, double, double, double, double, double, double, double, double, i32, i32, i32, i32, i32, i64, double, i32, i64, i64, i64, i64, i64, i64, i64, i64, i64, i64, i64, i64, i64, i64, i64, i64, i64, i64, i64, i64, i64, i64, i64, i64, ptr, ptr, ptr, i32, i32, i32, i32, i32, i32, i32, i32, i32, i32, i32, i32, i32, ptr, ptr, ptr, ptr, ptr, ptr, i32, i32, i32, i32, i32, i32, double, double, double, ptr, i32, ptr, ptr, double, double, double, ptr, ptr, ptr, double, double, i32, i32, i64, ptr, i32, i32, ptr, i32 }
%struct.IDASpilsMemRec = type { i32, i32, double, i32, i32, double, double, double, i64, i64, i64, i64, i64, i64, i64, i64, i64, i64, i64, i64, ptr, ptr, ptr, ptr, ptr, ptr, ptr, i64, ptr, ptr, ptr, ptr, i32, ptr, ptr }

; Function Attrs: nounwind uwtable
define internal i32 @IDASpbcgFree(ptr noundef %0) #0 {
  %2 = alloca ptr, align 8
  %3 = alloca ptr, align 8
  %4 = alloca ptr, align 8
  store ptr %0, ptr %2, align 8, !tbaa !9
  call void @llvm.lifetime.start.p0(i64 8, ptr %3) #5
  call void @llvm.lifetime.start.p0(i64 8, ptr %4) #5
  %5 = load ptr, ptr %2, align 8, !tbaa !9
  %6 = getelementptr inbounds nuw %struct.IDAMemRec, ptr %5, i32 0, i32 176
  %7 = load ptr, ptr %6, align 8, !tbaa !53
  store ptr %7, ptr %3, align 8, !tbaa !31
  %8 = load ptr, ptr %3, align 8, !tbaa !31
  %9 = getelementptr inbounds nuw %struct.IDASpilsMemRec, ptr %8, i32 0, i32 20
  %10 = load ptr, ptr %9, align 8, !tbaa !48
  call void @N_VDestroy(ptr noundef %10)
  %11 = load ptr, ptr %3, align 8, !tbaa !31
  %12 = getelementptr inbounds nuw %struct.IDASpilsMemRec, ptr %11, i32 0, i32 21
  %13 = load ptr, ptr %12, align 8, !tbaa !49
  call void @N_VDestroy(ptr noundef %13)
  %14 = load ptr, ptr %3, align 8, !tbaa !31
  %15 = getelementptr inbounds nuw %struct.IDASpilsMemRec, ptr %14, i32 0, i32 22
  %16 = load ptr, ptr %15, align 8, !tbaa !50
  call void @N_VDestroy(ptr noundef %16)
  %17 = load ptr, ptr %3, align 8, !tbaa !31
  %18 = getelementptr inbounds nuw %struct.IDASpilsMemRec, ptr %17, i32 0, i32 26
  %19 = load ptr, ptr %18, align 8, !tbaa !52
  store ptr %19, ptr %4, align 8, !tbaa !3
  %20 = load ptr, ptr %4, align 8, !tbaa !3
  call void @SpbcgFree(ptr noundef %20)
  %21 = load ptr, ptr %3, align 8, !tbaa !31
  %22 = getelementptr inbounds nuw %struct.IDASpilsMemRec, ptr %21, i32 0, i32 30
  %23 = load ptr, ptr %22, align 8, !tbaa !41
  %24 = icmp ne ptr %23, null
  br i1 %24, label %25, label %30

25:                                               ; preds = %1
  %26 = load ptr, ptr %3, align 8, !tbaa !31
  %27 = getelementptr inbounds nuw %struct.IDASpilsMemRec, ptr %26, i32 0, i32 30
  %28 = load ptr, ptr %27, align 8, !tbaa !41
  %29 = load ptr, ptr %2, align 8, !tbaa !9
  call void %28(ptr noundef %29)
  br label %30

30:                                               ; preds = %25, %1
  %31 = load ptr, ptr %3, align 8, !tbaa !31
  call void @free(ptr noundef %31) #5
  store ptr null, ptr %3, align 8, !tbaa !31
  call void @llvm.lifetime.end.p0(i64 8, ptr %4) #5
  call void @llvm.lifetime.end.p0(i64 8, ptr %3) #5
  ret i32 0
}