; Function Attrs: nounwind uwtable
define internal noundef i32 @IDASpbcgFree(ptr noundef %0) #0 {
  %2 = getelementptr inbounds nuw i8, ptr %0, i64 1632
  %3 = load ptr, ptr %2, align 8, !tbaa !42
  %4 = getelementptr inbounds nuw i8, ptr %3, i64 144
  %5 = load ptr, ptr %4, align 8, !tbaa !37
  tail call void @N_VDestroy(ptr noundef %5) #8
  %6 = getelementptr inbounds nuw i8, ptr %3, i64 152
  %7 = load ptr, ptr %6, align 8, !tbaa !38
  tail call void @N_VDestroy(ptr noundef %7) #8
  %8 = getelementptr inbounds nuw i8, ptr %3, i64 160
  %9 = load ptr, ptr %8, align 8, !tbaa !39
  tail call void @N_VDestroy(ptr noundef %9) #8
  %10 = getelementptr inbounds nuw i8, ptr %3, i64 192
  %11 = load ptr, ptr %10, align 8, !tbaa !41
  tail call void @SpbcgFree(ptr noundef %11) #8
  %12 = getelementptr inbounds nuw i8, ptr %3, i64 224
  %13 = load ptr, ptr %12, align 8, !tbaa !71
  %.not = icmp eq ptr %13, null
  br i1 %.not, label %15, label %14

14:                                               ; preds = %1
  tail call void %13(ptr noundef nonnull %0) #8
  br label %15

15:                                               ; preds = %14, %1
  tail call void @free(ptr noundef nonnull %3) #8
  ret i32 0
}